target datalayout = "e-m:e-p270:32:32-p271:32:32-p272:64:64-i64:64-i128:128-f80:128-n8:16:32:64-S128"
target triple = "x86_64-pc-linux-gnu"

%struct.nghttp2_session = type { %struct.nghttp2_map, %struct.nghttp2_stream, %struct.nghttp2_outbound_queue, %struct.nghttp2_outbound_queue, %struct.nghttp2_outbound_queue, [8 x %struct.anon], %struct.nghttp2_active_outbound_item, %struct.nghttp2_inbound_frame, %struct.nghttp2_hd_deflater, %struct.nghttp2_hd_inflater, %struct.nghttp2_session_callbacks, %struct.nghttp2_mem, ptr, ptr, ptr, ptr, ptr, ptr, i64, i64, i64, i64, i64, i64, i64, i64, i64, i64, i64, i64, i32, i32, i32, i32, i32, i32, i32, i32, i32, i32, i32, i32, i8, %struct.nghttp2_settings_storage, %struct.nghttp2_settings_storage, i32, i32, i32, i8, i8, i8, i8, i8, i8, i8, [32 x i8] }
%struct.nghttp2_map = type { ptr, ptr, i64, i32, i32 }
%struct.nghttp2_stream = type { %struct.nghttp2_pq_entry, %struct.nghttp2_pq, i64, i64, i64, i64, i64, i64, ptr, ptr, ptr, ptr, ptr, ptr, ptr, ptr, i64, i32, i32, i32, i32, i32, i32, i32, i32, i32, i32, i16, i32, i8, i8, i8, i8, i8, i8 }
%struct.nghttp2_pq_entry = type { i64 }
%struct.nghttp2_pq = type { ptr, ptr, i64, i64, ptr }
%struct.nghttp2_outbound_queue = type { ptr, ptr, i64 }
%struct.anon = type { %struct.nghttp2_pq }
%struct.nghttp2_active_outbound_item = type { ptr, %struct.nghttp2_bufs, i32 }
%struct.nghttp2_bufs = type { ptr, ptr, ptr, i64, i64, i64, i64, i64 }
%struct.nghttp2_inbound_frame = type { %union.nghttp2_frame, %union.nghttp2_ext_frame_payload, ptr, %struct.nghttp2_buf, %struct.nghttp2_buf, ptr, i64, i64, i64, i64, i32, [32 x i8] }
%union.nghttp2_frame = type { %struct.nghttp2_headers }
%struct.nghttp2_headers = type { %struct.nghttp2_frame_hd, i64, %struct.nghttp2_priority_spec, ptr, i64, i32 }
%struct.nghttp2_frame_hd = type { i64, i32, i8, i8, i8 }
%struct.nghttp2_priority_spec = type { i32, i32, i8 }
%union.nghttp2_ext_frame_payload = type { %struct.nghttp2_ext_altsvc }
%struct.nghttp2_ext_altsvc = type { ptr, i64, ptr, i64 }
%struct.nghttp2_buf = type { ptr, ptr, ptr, ptr, ptr }
%struct.nghttp2_hd_deflater = type { %struct.nghttp2_hd_context, %struct.nghttp2_hd_map, i64, i64, i8 }
%struct.nghttp2_hd_context = type { %struct.nghttp2_hd_ringbuf, ptr, i64, i64, i32, i8 }
%struct.nghttp2_hd_ringbuf = type { ptr, i64, i64, i64 }
%struct.nghttp2_hd_map = type { [128 x ptr] }
%struct.nghttp2_hd_inflater = type { %struct.nghttp2_hd_context, %struct.nghttp2_hd_huff_decode_context, %struct.nghttp2_buf, %struct.nghttp2_buf, ptr, ptr, ptr, ptr, i64, i64, i64, i64, i64, i32, i32, i8, i8, i8 }
%struct.nghttp2_hd_huff_decode_context = type { i16 }
%struct.nghttp2_session_callbacks = type { ptr, ptr, ptr, ptr, ptr, ptr, ptr, ptr, ptr, ptr, ptr, ptr, ptr, ptr, ptr, ptr, ptr, ptr, ptr, ptr, ptr, ptr, ptr }
%struct.nghttp2_mem = type { ptr, ptr, ptr, ptr, ptr }
%struct.nghttp2_settings_storage = type { i32, i32, i32, i32, i32, i32, i32, i32 }
%struct.nghttp2_extension = type { %struct.nghttp2_frame_hd, ptr }

; Function Attrs: nounwind uwtable
define internal i32 @session_call_on_frame_received(ptr noundef %0, ptr noundef %1) #0 {
  %3 = alloca i32, align 4
  %4 = alloca ptr, align 8
  %5 = alloca ptr, align 8
  %6 = alloca i32, align 4
  %7 = alloca i32, align 4
  store ptr %0, ptr %4, align 8, !tbaa !8
  store ptr %1, ptr %5, align 8, !tbaa !53
  call void @llvm.lifetime.start.p0(i64 4, ptr %6) #9
  %8 = load ptr, ptr %4, align 8, !tbaa !8
  %9 = getelementptr inbounds nuw %struct.nghttp2_session, ptr %8, i32 0, i32 10
  %10 = getelementptr inbounds nuw %struct.nghttp2_session_callbacks, ptr %9, i32 0, i32 2
  %11 = load ptr, ptr %10, align 8, !tbaa !185
  %12 = icmp ne ptr %11, null
  br i1 %12, label %13, label %28

13:                                               ; preds = %2
  %14 = load ptr, ptr %4, align 8, !tbaa !8
  %15 = getelementptr inbounds nuw %struct.nghttp2_session, ptr %14, i32 0, i32 10
  %16 = getelementptr inbounds nuw %struct.nghttp2_session_callbacks, ptr %15, i32 0, i32 2
  %17 = load ptr, ptr %16, align 8, !tbaa !185
  %18 = load ptr, ptr %4, align 8, !tbaa !8
  %19 = load ptr, ptr %5, align 8, !tbaa !53
  %20 = load ptr, ptr %4, align 8, !tbaa !8
  %21 = getelementptr inbounds nuw %struct.nghttp2_session, ptr %20, i32 0, i32 12
  %22 = load ptr, ptr %21, align 8, !tbaa !92
  %23 = call i32 %17(ptr noundef %18, ptr noundef %19, ptr noundef %22)
  store i32 %23, ptr %6, align 4, !tbaa !4
  %24 = load i32, ptr %6, align 4, !tbaa !4
  %25 = icmp ne i32 %24, 0
  br i1 %25, label %26, label %27

26:                                               ; preds = %13
  store i32 -902, ptr %3, align 4
  store i32 1, ptr %7, align 4
  br label %29

27:                                               ; preds = %13
  br label %28

28:                                               ; preds = %27, %2
  store i32 0, ptr %3, align 4
  store i32 1, ptr %7, align 4
  br label %29

29:                                               ; preds = %28, %26
  call void @llvm.lifetime.end.p0(i64 4, ptr %6) #9
  %30 = load i32, ptr %3, align 4
  ret i32 %30
}

; Function Attrs: nounwind uwtable
define dso_local ptr @nghttp2_session_get_stream(ptr noundef %0, i32 noundef %1) #0 {
  %3 = alloca ptr, align 8
  %4 = alloca ptr, align 8
  %5 = alloca i32, align 4
  %6 = alloca ptr, align 8
  %7 = alloca i32, align 4
  store ptr %0, ptr %4, align 8, !tbaa !8
  store i32 %1, ptr %5, align 4, !tbaa !4
  call void @llvm.lifetime.start.p0(i64 8, ptr %6) #9
  %8 = load ptr, ptr %4, align 8, !tbaa !8
  %9 = getelementptr inbounds nuw %struct.nghttp2_session, ptr %8, i32 0, i32 0
  %10 = load i32, ptr %5, align 4, !tbaa !4
  %11 = call ptr @nghttp2_map_find(ptr noundef %9, i32 noundef %10)
  store ptr %11, ptr %6, align 8, !tbaa !46
  %12 = load ptr, ptr %6, align 8, !tbaa !46
  %13 = icmp eq ptr %12, null
  br i1 %13, label %26, label %14

14:                                               ; preds = %2
  %15 = load ptr, ptr %6, align 8, !tbaa !46
  %16 = getelementptr inbounds nuw %struct.nghttp2_stream, ptr %15, i32 0, i32 29
  %17 = load i8, ptr %16, align 8, !tbaa !47
  %18 = zext i8 %17 to i32
  %19 = and i32 %18, 2
  %20 = icmp ne i32 %19, 0
  br i1 %20, label %26, label %21

21:                                               ; preds = %14
  %22 = load ptr, ptr %6, align 8, !tbaa !46
  %23 = getelementptr inbounds nuw %struct.nghttp2_stream, ptr %22, i32 0, i32 26
  %24 = load i32, ptr %23, align 4, !tbaa !48
  %25 = icmp eq i32 %24, 5
  br i1 %25, label %26, label %27

26:                                               ; preds = %21, %14, %2
  store ptr null, ptr %3, align 8
  store i32 1, ptr %7, align 4
  br label %29

27:                                               ; preds = %21
  %28 = load ptr, ptr %6, align 8, !tbaa !46
  store ptr %28, ptr %3, align 8
  store i32 1, ptr %7, align 4
  br label %29

29:                                               ; preds = %27, %26
  call void @llvm.lifetime.end.p0(i64 8, ptr %6) #9
  %30 = load ptr, ptr %3, align 8
  ret ptr %30
}

; Function Attrs: nounwind uwtable
define internal i32 @session_call_on_invalid_frame_recv_callback(ptr noundef %0, ptr noundef %1, i32 noundef %2) #0 {
  %4 = alloca i32, align 4
  %5 = alloca ptr, align 8
  %6 = alloca ptr, align 8
  %7 = alloca i32, align 4
  store ptr %0, ptr %5, align 8, !tbaa !8
  store ptr %1, ptr %6, align 8, !tbaa !53
  store i32 %2, ptr %7, align 4, !tbaa !4
  %8 = load ptr, ptr %5, align 8, !tbaa !8
  %9 = getelementptr inbounds nuw %struct.nghttp2_session, ptr %8, i32 0, i32 10
  %10 = getelementptr inbounds nuw %struct.nghttp2_session_callbacks, ptr %9, i32 0, i32 3
  %11 = load ptr, ptr %10, align 8, !tbaa !184
  %12 = icmp ne ptr %11, null
  br i1 %12, label %13, label %28

13:                                               ; preds = %3
  %14 = load ptr, ptr %5, align 8, !tbaa !8
  %15 = getelementptr inbounds nuw %struct.nghttp2_session, ptr %14, i32 0, i32 10
  %16 = getelementptr inbounds nuw %struct.nghttp2_session_callbacks, ptr %15, i32 0, i32 3
  %17 = load ptr, ptr %16, align 8, !tbaa !184
  %18 = load ptr, ptr %5, align 8, !tbaa !8
  %19 = load ptr, ptr %6, align 8, !tbaa !53
  %20 = load i32, ptr %7, align 4, !tbaa !4
  %21 = load ptr, ptr %5, align 8, !tbaa !8
  %22 = getelementptr inbounds nuw %struct.nghttp2_session, ptr %21, i32 0, i32 12
  %23 = load ptr, ptr %22, align 8, !tbaa !92
  %24 = call i32 %17(ptr noundef %18, ptr noundef %19, i32 noundef %20, ptr noundef %23)
  %25 = icmp ne i32 %24, 0
  br i1 %25, label %26, label %27

26:                                               ; preds = %13
  store i32 -902, ptr %4, align 4
  br label %29

27:                                               ; preds = %13
  br label %28

28:                                               ; preds = %27, %3
  store i32 0, ptr %4, align 4
  br label %29

29:                                               ; preds = %28, %26
  %30 = load i32, ptr %4, align 4
  ret i32 %30
}

; Function Attrs: nounwind uwtable
define dso_local i32 @nghttp2_session_on_altsvc_received(ptr noundef %0, ptr noundef %1) #0 {
  %3 = alloca i32, align 4
  %4 = alloca ptr, align 8
  %5 = alloca ptr, align 8
  %6 = alloca ptr, align 8
  %7 = alloca ptr, align 8
  %8 = alloca i32, align 4
  store ptr %0, ptr %4, align 8, !tbaa !8
  store ptr %1, ptr %5, align 8, !tbaa !53
  call void @llvm.lifetime.start.p0(i64 8, ptr %6) #9
  call void @llvm.lifetime.start.p0(i64 8, ptr %7) #9
  %9 = load ptr, ptr %5, align 8, !tbaa !53
  %10 = getelementptr inbounds nuw %struct.nghttp2_extension, ptr %9, i32 0, i32 1
  %11 = load ptr, ptr %10, align 8, !tbaa !115
  store ptr %11, ptr %6, align 8, !tbaa !53
  %12 = load ptr, ptr %5, align 8, !tbaa !53
  %13 = getelementptr inbounds nuw %struct.nghttp2_frame_hd, ptr %12, i32 0, i32 1
  %14 = load i32, ptr %13, align 8, !tbaa !115
  %15 = icmp eq i32 %14, 0
  br i1 %15, label %16, label %26

16:                                               ; preds = %2
  %17 = load ptr, ptr %6, align 8, !tbaa !53
  %18 = getelementptr inbounds nuw %struct.nghttp2_ext_altsvc, ptr %17, i32 0, i32 1
  %19 = load i64, ptr %18, align 8, !tbaa !222
  %20 = icmp eq i64 %19, 0
  br i1 %20, label %21, label %25

21:                                               ; preds = %16
  %22 = load ptr, ptr %4, align 8, !tbaa !8
  %23 = load ptr, ptr %5, align 8, !tbaa !53
  %24 = call i32 @session_call_on_invalid_frame_recv_callback(ptr noundef %22, ptr noundef %23, i32 noundef -505)
  store i32 %24, ptr %3, align 4
  store i32 1, ptr %8, align 4
  br label %64

25:                                               ; preds = %16
  br label %51

26:                                               ; preds = %2
  %27 = load ptr, ptr %6, align 8, !tbaa !53
  %28 = getelementptr inbounds nuw %struct.nghttp2_ext_altsvc, ptr %27, i32 0, i32 1
  %29 = load i64, ptr %28, align 8, !tbaa !222
  %30 = icmp ugt i64 %29, 0
  br i1 %30, label %31, label %35

31:                                               ; preds = %26
  %32 = load ptr, ptr %4, align 8, !tbaa !8
  %33 = load ptr, ptr %5, align 8, !tbaa !53
  %34 = call i32 @session_call_on_invalid_frame_recv_callback(ptr noundef %32, ptr noundef %33, i32 noundef -505)
  store i32 %34, ptr %3, align 4
  store i32 1, ptr %8, align 4
  br label %64

35:                                               ; preds = %26
  %36 = load ptr, ptr %4, align 8, !tbaa !8
  %37 = load ptr, ptr %5, align 8, !tbaa !53
  %38 = getelementptr inbounds nuw %struct.nghttp2_frame_hd, ptr %37, i32 0, i32 1
  %39 = load i32, ptr %38, align 8, !tbaa !115
  %40 = call ptr @nghttp2_session_get_stream(ptr noundef %36, i32 noundef %39)
  store ptr %40, ptr %7, align 8, !tbaa !46
  %41 = load ptr, ptr %7, align 8, !tbaa !46
  %42 = icmp ne ptr %41, null
  br i1 %42, label %44, label %43

43:                                               ; preds = %35
  store i32 0, ptr %3, align 4
  store i32 1, ptr %8, align 4
  br label %64

44:                                               ; preds = %35
  %45 = load ptr, ptr %7, align 8, !tbaa !46
  %46 = getelementptr inbounds nuw %struct.nghttp2_stream, ptr %45, i32 0, i32 26
  %47 = load i32, ptr %46, align 4, !tbaa !48
  %48 = icmp eq i32 %47, 3
  br i1 %48, label %49, label %50

49:                                               ; preds = %44
  store i32 0, ptr %3, align 4
  store i32 1, ptr %8, align 4
  br label %64

50:                                               ; preds = %44
  br label %51

51:                                               ; preds = %50, %25
  %52 = load ptr, ptr %6, align 8, !tbaa !53
  %53 = getelementptr inbounds nuw %struct.nghttp2_ext_altsvc, ptr %52, i32 0, i32 3
  %54 = load i64, ptr %53, align 8, !tbaa !224
  %55 = icmp eq i64 %54, 0
  br i1 %55, label %56, label %60

56:                                               ; preds = %51
  %57 = load ptr, ptr %4, align 8, !tbaa !8
  %58 = load ptr, ptr %5, align 8, !tbaa !53
  %59 = call i32 @session_call_on_invalid_frame_recv_callback(ptr noundef %57, ptr noundef %58, i32 noundef -505)
  store i32 %59, ptr %3, align 4
  store i32 1, ptr %8, align 4
  br label %64

60:                                               ; preds = %51
  %61 = load ptr, ptr %4, align 8, !tbaa !8
  %62 = load ptr, ptr %5, align 8, !tbaa !53
  %63 = call i32 @session_call_on_frame_received(ptr noundef %61, ptr noundef %62)
  store i32 %63, ptr %3, align 4
  store i32 1, ptr %8, align 4
  br label %64

64:                                               ; preds = %60, %56, %49, %43, %31, %21
  call void @llvm.lifetime.end.p0(i64 8, ptr %7) #9
  call void @llvm.lifetime.end.p0(i64 8, ptr %6) #9
  %65 = load i32, ptr %3, align 4
  ret i32 %65
}