; Function Attrs: nounwind uwtable
define dso_local range(i32 -902, 1) i32 @nghttp2_session_on_altsvc_received(ptr noundef %0, ptr noundef %1) local_unnamed_addr #1 {
  %3 = getelementptr inbounds nuw i8, ptr %1, i64 16
  %4 = load ptr, ptr %3, align 8, !tbaa !111
  %5 = getelementptr inbounds nuw i8, ptr %1, i64 8
  %6 = load i32, ptr %5, align 8, !tbaa !111
  %7 = icmp eq i32 %6, 0
  %8 = getelementptr inbounds nuw i8, ptr %4, i64 8
  %9 = load i64, ptr %8, align 8, !tbaa !228
  %10 = icmp eq i64 %9, 0
  br i1 %7, label %11, label %20

11:                                               ; preds = %2
  br i1 %10, label %12, label %39

12:                                               ; preds = %11
  %13 = getelementptr inbounds nuw i8, ptr %0, i64 2368
  %14 = load ptr, ptr %13, align 8, !tbaa !190
  %.not.i = icmp eq ptr %14, null
  br i1 %.not.i, label %19, label %15

15:                                               ; preds = %12
  %16 = getelementptr inbounds nuw i8, ptr %0, i64 2568
  %17 = load ptr, ptr %16, align 8, !tbaa !89
  %18 = tail call i32 %14(ptr noundef nonnull %0, ptr noundef nonnull %1, i32 noundef -505, ptr noundef %17) #20
  %.not7.i = icmp eq i32 %18, 0
  br i1 %.not7.i, label %19, label %session_call_on_invalid_frame_recv_callback.exit

19:                                               ; preds = %15, %12
  br label %session_call_on_invalid_frame_recv_callback.exit

20:                                               ; preds = %2
  br i1 %10, label %29, label %21

21:                                               ; preds = %20
  %22 = getelementptr inbounds nuw i8, ptr %0, i64 2368
  %23 = load ptr, ptr %22, align 8, !tbaa !190
  %.not.i20 = icmp eq ptr %23, null
  br i1 %.not.i20, label %28, label %24

24:                                               ; preds = %21
  %25 = getelementptr inbounds nuw i8, ptr %0, i64 2568
  %26 = load ptr, ptr %25, align 8, !tbaa !89
  %27 = tail call i32 %23(ptr noundef nonnull %0, ptr noundef nonnull %1, i32 noundef -505, ptr noundef %26) #20
  %.not7.i21 = icmp eq i32 %27, 0
  br i1 %.not7.i21, label %28, label %session_call_on_invalid_frame_recv_callback.exit

28:                                               ; preds = %24, %21
  br label %session_call_on_invalid_frame_recv_callback.exit

29:                                               ; preds = %20
  %30 = tail call ptr @nghttp2_map_find(ptr noundef %0, i32 noundef %6) #20
  %31 = icmp eq ptr %30, null
  br i1 %31, label %session_call_on_invalid_frame_recv_callback.exit, label %32

32:                                               ; preds = %29
  %33 = getelementptr inbounds nuw i8, ptr %30, i64 216
  %34 = load i8, ptr %33, align 8, !tbaa !41
  %35 = and i8 %34, 2
  %.not.i24 = icmp eq i8 %35, 0
  br i1 %.not.i24, label %36, label %session_call_on_invalid_frame_recv_callback.exit

36:                                               ; preds = %32
  %37 = getelementptr inbounds nuw i8, ptr %30, i64 204
  %38 = load i32, ptr %37, align 4, !tbaa !42
  switch i32 %38, label %39 [
    i32 5, label %session_call_on_invalid_frame_recv_callback.exit
    i32 3, label %session_call_on_invalid_frame_recv_callback.exit
  ]

39:                                               ; preds = %36, %11
  %40 = getelementptr inbounds nuw i8, ptr %4, i64 24
  %41 = load i64, ptr %40, align 8, !tbaa !230
  %42 = icmp eq i64 %41, 0
  br i1 %42, label %43, label %51

43:                                               ; preds = %39
  %44 = getelementptr inbounds nuw i8, ptr %0, i64 2368
  %45 = load ptr, ptr %44, align 8, !tbaa !190
  %.not.i26 = icmp eq ptr %45, null
  br i1 %.not.i26, label %50, label %46

46:                                               ; preds = %43
  %47 = getelementptr inbounds nuw i8, ptr %0, i64 2568
  %48 = load ptr, ptr %47, align 8, !tbaa !89
  %49 = tail call i32 %45(ptr noundef nonnull %0, ptr noundef nonnull %1, i32 noundef -505, ptr noundef %48) #20
  %.not7.i27 = icmp eq i32 %49, 0
  br i1 %.not7.i27, label %50, label %session_call_on_invalid_frame_recv_callback.exit

50:                                               ; preds = %46, %43
  br label %session_call_on_invalid_frame_recv_callback.exit

51:                                               ; preds = %39
  %52 = getelementptr inbounds nuw i8, ptr %0, i64 2360
  %53 = load ptr, ptr %52, align 8, !tbaa !192
  %.not.i30 = icmp eq ptr %53, null
  br i1 %.not.i30, label %58, label %54

54:                                               ; preds = %51
  %55 = getelementptr inbounds nuw i8, ptr %0, i64 2568
  %56 = load ptr, ptr %55, align 8, !tbaa !89
  %57 = tail call i32 %53(ptr noundef nonnull %0, ptr noundef nonnull %1, ptr noundef %56) #20
  %.not7.i31 = icmp eq i32 %57, 0
  br i1 %.not7.i31, label %58, label %session_call_on_invalid_frame_recv_callback.exit

58:                                               ; preds = %54, %51
  br label %session_call_on_invalid_frame_recv_callback.exit

session_call_on_invalid_frame_recv_callback.exit: ; preds = %36, %36, %29, %32, %58, %54, %50, %46, %28, %24, %19, %15
  %.0 = phi i32 [ 0, %19 ], [ -902, %15 ], [ 0, %28 ], [ -902, %24 ], [ 0, %50 ], [ -902, %46 ], [ 0, %58 ], [ -902, %54 ], [ 0, %32 ], [ 0, %29 ], [ 0, %36 ], [ 0, %36 ]
  ret i32 %.0
}